; Function Attrs: mustprogress uwtable
define hidden void @_ZN17substitution_tree14mark_used_regsERK7svectorISt4pairIP3varP4exprEjE(ptr noundef nonnull align 8 dereferenceable(136) %0, ptr noundef nonnull readonly align 8 captures(none) dereferenceable(8) %1) local_unnamed_addr #5 align 2 {
  %3 = load ptr, ptr %1, align 8, !tbaa !43
  %4 = icmp eq ptr %3, null
  br i1 %4, label %._crit_edge, label %_ZNK6vectorISt4pairIP3varP4exprELb0EjE3endEv.exit

_ZNK6vectorISt4pairIP3varP4exprELb0EjE3endEv.exit: ; preds = %2
  %5 = getelementptr inbounds i8, ptr %3, i64 -4
  %6 = load i32, ptr %5, align 4, !tbaa !33
  %7 = zext i32 %6 to i64
  %8 = getelementptr inbounds nuw %"struct.std::pair", ptr %3, i64 %7
  %.not19 = icmp eq i32 %6, 0
  br i1 %.not19, label %._crit_edge, label %.lr.ph21

.lr.ph21:                                         ; preds = %_ZNK6vectorISt4pairIP3varP4exprELb0EjE3endEv.exit
  %9 = getelementptr inbounds nuw i8, ptr %0, i64 56
  %10 = getelementptr inbounds nuw i8, ptr %0, i64 64
  br label %11

11:                                               ; preds = %.lr.ph21, %.loopexit
  %.020 = phi ptr [ %3, %.lr.ph21 ], [ %53, %.loopexit ]
  %12 = load ptr, ptr %.020, align 8, !tbaa !72
  %13 = getelementptr inbounds nuw i8, ptr %12, i64 16
  %14 = load i32, ptr %13, align 8, !tbaa !67
  %15 = load i32, ptr %9, align 8, !tbaa !3
  %.not.i = icmp ult i32 %14, %15
  br i1 %.not.i, label %_ZN17substitution_tree13mark_used_regEj.exit, label %16

16:                                               ; preds = %11
  %17 = add i32 %14, 1
  tail call void @_ZN10bit_vector6resizeEjb(ptr noundef nonnull align 8 dereferenceable(16) %9, i32 noundef %17, i1 noundef zeroext false)
  br label %_ZN17substitution_tree13mark_used_regEj.exit

_ZN17substitution_tree13mark_used_regEj.exit:     ; preds = %11, %16
  %18 = and i32 %14, 31
  %19 = shl nuw i32 1, %18
  %20 = load ptr, ptr %10, align 8, !tbaa !77
  %21 = lshr i32 %14, 5
  %22 = zext nneg i32 %21 to i64
  %23 = getelementptr inbounds nuw i32, ptr %20, i64 %22
  %24 = load i32, ptr %23, align 4, !tbaa !33
  %25 = or i32 %24, %19
  store i32 %25, ptr %23, align 4, !tbaa !33
  %26 = getelementptr inbounds nuw i8, ptr %.020, i64 8
  %27 = load ptr, ptr %26, align 8, !tbaa !75
  %28 = getelementptr inbounds nuw i8, ptr %27, i64 4
  %29 = load i32, ptr %28, align 4
  %30 = and i32 %29, 65535
  %31 = icmp eq i32 %30, 0
  br i1 %31, label %32, label %.loopexit

32:                                               ; preds = %_ZN17substitution_tree13mark_used_regEj.exit
  %33 = getelementptr inbounds nuw i8, ptr %27, i64 24
  %34 = load i32, ptr %33, align 8, !tbaa !46
  %.not22 = icmp eq i32 %34, 0
  br i1 %.not22, label %.loopexit, label %.lr.ph.preheader

.lr.ph.preheader:                                 ; preds = %32
  %wide.trip.count = zext i32 %34 to i64
  br label %.lr.ph

.lr.ph:                                           ; preds = %.lr.ph.preheader, %_ZN17substitution_tree13mark_used_regEj.exit17
  %35 = phi ptr [ %20, %.lr.ph.preheader ], [ %45, %_ZN17substitution_tree13mark_used_regEj.exit17 ]
  %indvars.iv = phi i64 [ 0, %.lr.ph.preheader ], [ %indvars.iv.next, %_ZN17substitution_tree13mark_used_regEj.exit17 ]
  %36 = load ptr, ptr %26, align 8, !tbaa !75
  %37 = getelementptr inbounds nuw i8, ptr %36, i64 32
  %38 = getelementptr inbounds nuw [0 x ptr], ptr %37, i64 0, i64 %indvars.iv
  %39 = load ptr, ptr %38, align 8, !tbaa !40
  %40 = getelementptr inbounds nuw i8, ptr %39, i64 16
  %41 = load i32, ptr %40, align 8, !tbaa !67
  %42 = load i32, ptr %9, align 8, !tbaa !3
  %.not.i16 = icmp ult i32 %41, %42
  br i1 %.not.i16, label %_ZN17substitution_tree13mark_used_regEj.exit17, label %43

43:                                               ; preds = %.lr.ph
  %44 = add i32 %41, 1
  tail call void @_ZN10bit_vector6resizeEjb(ptr noundef nonnull align 8 dereferenceable(16) %9, i32 noundef %44, i1 noundef zeroext false)
  %.pre = load ptr, ptr %10, align 8, !tbaa !77
  br label %_ZN17substitution_tree13mark_used_regEj.exit17

_ZN17substitution_tree13mark_used_regEj.exit17:   ; preds = %.lr.ph, %43
  %45 = phi ptr [ %35, %.lr.ph ], [ %.pre, %43 ]
  %46 = and i32 %41, 31
  %47 = shl nuw i32 1, %46
  %48 = lshr i32 %41, 5
  %49 = zext nneg i32 %48 to i64
  %50 = getelementptr inbounds nuw i32, ptr %45, i64 %49
  %51 = load i32, ptr %50, align 4, !tbaa !33
  %52 = or i32 %51, %47
  store i32 %52, ptr %50, align 4, !tbaa !33
  %indvars.iv.next = add nuw nsw i64 %indvars.iv, 1
  %exitcond.not = icmp eq i64 %indvars.iv.next, %wide.trip.count
  br i1 %exitcond.not, label %.loopexit, label %.lr.ph, !llvm.loop !83

.loopexit:                                        ; preds = %_ZN17substitution_tree13mark_used_regEj.exit17, %32, %_ZN17substitution_tree13mark_used_regEj.exit
  %53 = getelementptr inbounds nuw i8, ptr %.020, i64 16
  %.not = icmp eq ptr %53, %8
  br i1 %.not, label %._crit_edge, label %11, !llvm.loop !84

._crit_edge:                                      ; preds = %.loopexit, %2, %_ZNK6vectorISt4pairIP3varP4exprELb0EjE3endEv.exit
  ret void
}